; Function Attrs: nounwind uwtable
define dso_local range(i64 -2147483648, 2147483648) i64 @byteaoctetlen(ptr noundef readonly captures(none) %0) local_unnamed_addr #0 {
  %2 = getelementptr inbounds nuw i8, ptr %0, i64 32
  %3 = load i64, ptr %2, align 8
  %4 = tail call i64 @toast_raw_datum_size(i64 noundef %3) #19
  %5 = shl i64 %4, 32
  %sext = add i64 %5, -17179869184
  %6 = ashr exact i64 %sext, 32
  ret i64 %6
}